; Function Attrs: mustprogress nofree nounwind willreturn memory(argmem: read) uwtable
define dso_local zeroext i1 @path_is_prefix_of_path(ptr noundef readonly captures(none) %0, ptr noundef readonly captures(none) %1) local_unnamed_addr #9 {
  %3 = tail call i64 @strlen(ptr noundef nonnull dereferenceable(1) %0) #22
  %sext = shl i64 %3, 32
  %4 = ashr exact i64 %sext, 32
  %5 = tail call i32 @strncmp(ptr noundef nonnull %0, ptr noundef %1, i64 noundef %4) #22
  %6 = icmp eq i32 %5, 0
  br i1 %6, label %7, label %10

7:                                                ; preds = %2
  %8 = getelementptr inbounds i8, ptr %1, i64 %4
  %9 = load i8, ptr %8, align 1
  %switch.selectcmp.case1 = icmp eq i8 %9, 47
  %switch.selectcmp.case2 = icmp eq i8 %9, 0
  %switch.selectcmp = or i1 %switch.selectcmp.case1, %switch.selectcmp.case2
  br label %10

10:                                               ; preds = %2, %7
  %.0 = phi i1 [ %switch.selectcmp, %7 ], [ false, %2 ]
  ret i1 %.0
}